target datalayout = "e-m:e-p270:32:32-p271:32:32-p272:64:64-i64:64-i128:128-f80:128-n8:16:32:64-S128"
target triple = "x86_64-pc-linux-gnu"

%struct.JNINativeInterface_ = type { ptr, ptr, ptr, ptr, ptr, ptr, ptr, ptr, ptr, ptr, ptr, ptr, ptr, ptr, ptr, ptr, ptr, ptr, ptr, ptr, ptr, ptr, ptr, ptr, ptr, ptr, ptr, ptr, ptr, ptr, ptr, ptr, ptr, ptr, ptr, ptr, ptr, ptr, ptr, ptr, ptr, ptr, ptr, ptr, ptr, ptr, ptr, ptr, ptr, ptr, ptr, ptr, ptr, ptr, ptr, ptr, ptr, ptr, ptr, ptr, ptr, ptr, ptr, ptr, ptr, ptr, ptr, ptr, ptr, ptr, ptr, ptr, ptr, ptr, ptr, ptr, ptr, ptr, ptr, ptr, ptr, ptr, ptr, ptr, ptr, ptr, ptr, ptr, ptr, ptr, ptr, ptr, ptr, ptr, ptr, ptr, ptr, ptr, ptr, ptr, ptr, ptr, ptr, ptr, ptr, ptr, ptr, ptr, ptr, ptr, ptr, ptr, ptr, ptr, ptr, ptr, ptr, ptr, ptr, ptr, ptr, ptr, ptr, ptr, ptr, ptr, ptr, ptr, ptr, ptr, ptr, ptr, ptr, ptr, ptr, ptr, ptr, ptr, ptr, ptr, ptr, ptr, ptr, ptr, ptr, ptr, ptr, ptr, ptr, ptr, ptr, ptr, ptr, ptr, ptr, ptr, ptr, ptr, ptr, ptr, ptr, ptr, ptr, ptr, ptr, ptr, ptr, ptr, ptr, ptr, ptr, ptr, ptr, ptr, ptr, ptr, ptr, ptr, ptr, ptr, ptr, ptr, ptr, ptr, ptr, ptr, ptr, ptr, ptr, ptr, ptr, ptr, ptr, ptr, ptr, ptr, ptr, ptr, ptr, ptr, ptr, ptr, ptr, ptr, ptr, ptr, ptr, ptr, ptr, ptr, ptr, ptr, ptr, ptr, ptr, ptr, ptr, ptr, ptr, ptr, ptr, ptr, ptr, ptr, ptr, ptr, ptr, ptr, ptr, ptr, ptr, ptr, ptr, ptr, ptr }

@sFallbackInternalError = internal global ptr null, align 8
@.str.1 = private unnamed_addr constant [64 x i8] c"src/java.instrument/share/native/libinstrument/JavaExceptions.c\00", align 1
@.str.34 = private unnamed_addr constant [17 x i8] c"result == JNI_OK\00", align 1
@.str.35 = private unnamed_addr constant [34 x i8] c"throwThrowable failed to re-throw\00", align 1

; Function Attrs: nounwind uwtable
define hidden void @throwThrowable(ptr noundef %0, ptr noundef %1) #0 {
  %3 = alloca ptr, align 8
  %4 = alloca ptr, align 8
  %5 = alloca i32, align 4
  store ptr %0, ptr %3, align 8
  store ptr %1, ptr %4, align 8
  %6 = load ptr, ptr %4, align 8
  %7 = icmp ne ptr %6, null
  br i1 %7, label %8, label %20

8:                                                ; preds = %2
  %9 = load ptr, ptr %3, align 8
  %10 = load ptr, ptr %9, align 8
  %11 = getelementptr inbounds %struct.JNINativeInterface_, ptr %10, i32 0, i32 13
  %12 = load ptr, ptr %11, align 8
  %13 = load ptr, ptr %3, align 8
  %14 = load ptr, ptr %4, align 8
  %15 = call i32 %12(ptr noundef %13, ptr noundef %14)
  store i32 %15, ptr %5, align 4
  %16 = load i32, ptr %5, align 4
  %17 = icmp eq i32 %16, 0
  %18 = zext i1 %17 to i32
  %19 = trunc i32 %18 to i8
  call void @JPLISAssertConditionWithMessage(i8 noundef zeroext %19, ptr noundef @.str.34, ptr noundef @.str.35, ptr noundef @.str.1, i32 noundef 361)
  br label %20

20:                                               ; preds = %8, %2
  ret void
}

; Function Attrs: nounwind uwtable
define hidden ptr @forceFallback(ptr noundef %0) #0 {
  %2 = alloca ptr, align 8
  %3 = alloca ptr, align 8
  store ptr %0, ptr %3, align 8
  %4 = load ptr, ptr %3, align 8
  %5 = icmp eq ptr %4, null
  br i1 %5, label %6, label %8

6:                                                ; preds = %1
  %7 = load ptr, ptr @sFallbackInternalError, align 8
  store ptr %7, ptr %2, align 8
  br label %10

8:                                                ; preds = %1
  %9 = load ptr, ptr %3, align 8
  store ptr %9, ptr %2, align 8
  br label %10

10:                                               ; preds = %8, %6
  %11 = load ptr, ptr %2, align 8
  ret ptr %11
}

; Function Attrs: nounwind uwtable
define hidden void @createAndThrowThrowableFromJVMTIErrorCode(ptr noundef %0, i32 noundef %1) #0 {
  %3 = alloca ptr, align 8
  %4 = alloca i32, align 4
  %5 = alloca ptr, align 8
  store ptr %0, ptr %3, align 8
  store i32 %1, ptr %4, align 4
  %6 = load ptr, ptr %3, align 8
  %7 = load i32, ptr %4, align 4
  %8 = call ptr @createThrowableFromJVMTIErrorCode(ptr noundef %6, i32 noundef %7)
  store ptr %8, ptr %5, align 8
  %9 = load ptr, ptr %3, align 8
  %10 = load ptr, ptr %5, align 8
  %11 = call ptr @forceFallback(ptr noundef %10)
  call void @throwThrowable(ptr noundef %9, ptr noundef %11)
  ret void
}