; Function Attrs: nounwind uwtable
define hidden void @createAndThrowThrowableFromJVMTIErrorCode(ptr noundef %0, i32 noundef %1) local_unnamed_addr #1 {
  %3 = tail call ptr @createThrowableFromJVMTIErrorCode(ptr noundef %0, i32 noundef %1)
  %4 = icmp eq ptr %3, null
  %5 = load ptr, ptr @sFallbackInternalError, align 8
  %.0.i = select i1 %4, ptr %5, ptr %3
  %.not.i = icmp eq ptr %.0.i, null
  br i1 %.not.i, label %throwThrowable.exit, label %6

6:                                                ; preds = %2
  %7 = load ptr, ptr %0, align 8
  %8 = getelementptr inbounds i8, ptr %7, i64 104
  %9 = load ptr, ptr %8, align 8
  %10 = tail call i32 %9(ptr noundef nonnull %0, ptr noundef nonnull %.0.i) #3
  %11 = icmp eq i32 %10, 0
  %12 = zext i1 %11 to i8
  tail call void @JPLISAssertConditionWithMessage(i8 noundef zeroext %12, ptr noundef nonnull @.str.34, ptr noundef nonnull @.str.35, ptr noundef nonnull @.str.1, i32 noundef 361) #3
  br label %throwThrowable.exit

throwThrowable.exit:                              ; preds = %2, %6
  ret void
}